target datalayout = "e-m:e-p270:32:32-p271:32:32-p272:64:64-i64:64-i128:128-f80:128-n8:16:32:64-S128"
target triple = "x86_64-pc-linux-gnu"

%struct.sensor_info = type { ptr, ptr, ptr, ptr }

@hf_ipmi_se_2c_cause = internal global i32 0, align 4
@hf_ipmi_se_2c_previous_state = internal global i32 0, align 4
@ett_ipmi_se_evt_evd_byte2 = internal global i32 0, align 4
@.str.508 = private unnamed_addr constant [9 x i8] c"Reserved\00", align 1
@.str.783 = private unnamed_addr constant [12 x i8] c"%s (0x%02x)\00", align 1
@.str.1042 = private unnamed_addr constant [21 x i8] c"Previous state/Cause\00", align 1

; Function Attrs: null_pointer_is_valid sspstrong uwtable
define internal zeroext i1 @ssi_2c_2(ptr noundef %0, ptr noundef %1, ptr noundef %2, i32 noundef %3, i32 noundef %4, i32 noundef %5) #0 {
  %7 = alloca i1, align 1
  %8 = alloca ptr, align 8
  %9 = alloca ptr, align 8
  %10 = alloca ptr, align 8
  %11 = alloca i32, align 4
  %12 = alloca i32, align 4
  %13 = alloca i32, align 4
  %14 = alloca ptr, align 8
  %15 = alloca i32, align 4
  store ptr %0, ptr %8, align 8
  store ptr %1, ptr %9, align 8
  store ptr %2, ptr %10, align 8
  store i32 %3, ptr %11, align 4
  store i32 %4, ptr %12, align 4
  store i32 %5, ptr %13, align 4
  call void @llvm.lifetime.start.p0(i64 8, ptr %14) #5
  %16 = load i32, ptr %11, align 4
  %17 = icmp eq i32 %16, 3
  br i1 %17, label %18, label %40

18:                                               ; preds = %6
  %19 = load ptr, ptr %8, align 8
  %20 = load ptr, ptr %9, align 8
  %21 = load i32, ptr @ett_ipmi_se_evt_evd_byte2, align 4
  %22 = call ptr @proto_tree_add_subtree(ptr noundef %19, ptr noundef %20, i32 noundef 0, i32 noundef 1, i32 noundef %21, ptr noundef null, ptr noundef @.str.1042)
  store ptr %22, ptr %14, align 8
  %23 = load ptr, ptr %14, align 8
  %24 = load i32, ptr @hf_ipmi_se_2c_cause, align 4
  %25 = load ptr, ptr %9, align 8
  %26 = call ptr @proto_tree_add_item(ptr noundef %23, i32 noundef %24, ptr noundef %25, i32 noundef 0, i32 noundef 1, i32 noundef -2147483648)
  %27 = load i32, ptr %13, align 4
  %28 = and i32 %27, 15
  store i32 %28, ptr %13, align 4
  %29 = load ptr, ptr %14, align 8
  %30 = load i32, ptr @hf_ipmi_se_2c_previous_state, align 4
  %31 = load ptr, ptr %9, align 8
  %32 = load i32, ptr %13, align 4
  %33 = load i32, ptr %13, align 4
  %34 = load ptr, ptr %10, align 8
  %35 = getelementptr inbounds nuw %struct.sensor_info, ptr %34, i32 0, i32 0
  %36 = load ptr, ptr %35, align 8
  %37 = call ptr @val_to_str_const(i32 noundef %33, ptr noundef %36, ptr noundef @.str.508)
  %38 = load i32, ptr %13, align 4
  %39 = call ptr (ptr, i32, ptr, i32, i32, i32, ptr, ...) @proto_tree_add_uint_format_value(ptr noundef %29, i32 noundef %30, ptr noundef %31, i32 noundef 0, i32 noundef 1, i32 noundef %32, ptr noundef @.str.783, ptr noundef %37, i32 noundef %38)
  store i1 true, ptr %7, align 1
  store i32 1, ptr %15, align 4
  br label %41

40:                                               ; preds = %6
  store i1 false, ptr %7, align 1
  store i32 1, ptr %15, align 4
  br label %41

41:                                               ; preds = %40, %18
  call void @llvm.lifetime.end.p0(i64 8, ptr %14) #5
  %42 = load i1, ptr %7, align 1
  ret i1 %42
}