; Function Attrs: null_pointer_is_valid sspstrong uwtable
define internal noundef zeroext i1 @ssi_2c_2(ptr noundef %0, ptr noundef %1, ptr noundef readonly captures(none) %2, i32 noundef %3, i32 %4, i32 noundef %5) #0 {
  %7 = icmp eq i32 %3, 3
  br i1 %7, label %8, label %18

8:                                                ; preds = %6
  %9 = load i32, ptr @ett_ipmi_se_evt_evd_byte2, align 4
  %10 = tail call ptr @proto_tree_add_subtree(ptr noundef %0, ptr noundef %1, i32 noundef 0, i32 noundef 1, i32 noundef %9, ptr noundef null, ptr noundef nonnull @.str.1042)
  %11 = load i32, ptr @hf_ipmi_se_2c_cause, align 4
  %12 = tail call ptr @proto_tree_add_item(ptr noundef %10, i32 noundef %11, ptr noundef %1, i32 noundef 0, i32 noundef 1, i32 noundef -2147483648)
  %13 = and i32 %5, 15
  %14 = load i32, ptr @hf_ipmi_se_2c_previous_state, align 4
  %15 = load ptr, ptr %2, align 8
  %16 = tail call ptr @val_to_str_const(i32 noundef %13, ptr noundef %15, ptr noundef nonnull @.str.508)
  %17 = tail call ptr (ptr, i32, ptr, i32, i32, i32, ptr, ...) @proto_tree_add_uint_format_value(ptr noundef %10, i32 noundef %14, ptr noundef %1, i32 noundef 0, i32 noundef 1, i32 noundef %13, ptr noundef nonnull @.str.783, ptr noundef %16, i32 noundef %13)
  br label %18

18:                                               ; preds = %6, %8
  ret i1 %7
}